; Function Attrs: nounwind uwtable
define dso_local ptr @_hash_getcachedmetap(ptr noundef %0, ptr noundef captures(none) %1, i1 noundef zeroext %2) local_unnamed_addr #0 {
  %.phi.trans.insert = getelementptr inbounds nuw i8, ptr %0, i64 456
  %.pre = load ptr, ptr %.phi.trans.insert, align 8
  %4 = icmp eq ptr %.pre, null
  br i1 %2, label %7, label %5

5:                                                ; preds = %3
  br i1 %4, label %.thread, label %42

.thread:                                          ; preds = %5
  %6 = getelementptr inbounds nuw i8, ptr %0, i64 456
  br label %9

7:                                                ; preds = %3
  %8 = getelementptr inbounds nuw i8, ptr %0, i64 456
  br i1 %4, label %9, label %14

9:                                                ; preds = %.thread, %7
  %10 = phi ptr [ %6, %.thread ], [ %8, %7 ]
  %11 = getelementptr inbounds nuw i8, ptr %0, i64 344
  %12 = load ptr, ptr %11, align 8
  %13 = tail call ptr @MemoryContextAlloc(ptr noundef %12, i64 noundef 4544) #10
  br label %14

14:                                               ; preds = %9, %7
  %15 = phi ptr [ %10, %9 ], [ %8, %7 ]
  %.0 = phi ptr [ %13, %9 ], [ null, %7 ]
  %16 = load i32, ptr %1, align 4
  %.not = icmp eq i32 %16, 0
  br i1 %.not, label %18, label %17

17:                                               ; preds = %14
  tail call void @LockBuffer(i32 noundef %16, i32 noundef 1) #10
  %.pr = load i32, ptr %1, align 4
  br label %20

18:                                               ; preds = %14
  %19 = tail call i32 @ReadBuffer(ptr noundef nonnull %0, i32 noundef 0) #10
  tail call void @LockBuffer(i32 noundef %19, i32 noundef 1) #10
  tail call void @_hash_checkpage(ptr noundef nonnull %0, i32 noundef %19, i32 noundef 8) #10
  store i32 %19, ptr %1, align 4
  br label %20

20:                                               ; preds = %18, %17
  %21 = phi i32 [ %19, %18 ], [ %.pr, %17 ]
  %22 = icmp slt i32 %21, 0
  br i1 %22, label %23, label %29

23:                                               ; preds = %20
  %24 = load ptr, ptr @LocalBufferBlockPointers, align 8
  %25 = xor i32 %21, -1
  %26 = zext nneg i32 %25 to i64
  %27 = getelementptr inbounds nuw ptr, ptr %24, i64 %26
  %28 = load ptr, ptr %27, align 8
  br label %BufferGetPage.exit

29:                                               ; preds = %20
  %30 = load ptr, ptr @BufferBlocks, align 8
  %31 = add nsw i32 %21, -1
  %32 = sext i32 %31 to i64
  %33 = shl nsw i64 %32, 13
  %34 = getelementptr inbounds nuw i8, ptr %30, i64 %33
  br label %BufferGetPage.exit

BufferGetPage.exit:                               ; preds = %23, %29
  %.0.i.i = phi ptr [ %28, %23 ], [ %34, %29 ]
  %35 = load ptr, ptr %15, align 8
  %36 = icmp eq ptr %35, null
  br i1 %36, label %37, label %38

37:                                               ; preds = %BufferGetPage.exit
  store ptr %.0, ptr %15, align 8
  br label %38

38:                                               ; preds = %37, %BufferGetPage.exit
  %39 = phi ptr [ %.0, %37 ], [ %35, %BufferGetPage.exit ]
  %40 = getelementptr inbounds nuw i8, ptr %.0.i.i, i64 24
  tail call void @llvm.memcpy.p0.p0.i64(ptr noundef nonnull align 1 dereferenceable(4544) %39, ptr noundef nonnull align 8 dereferenceable(4544) %40, i64 4544, i1 false)
  %41 = load i32, ptr %1, align 4
  tail call void @LockBuffer(i32 noundef %41, i32 noundef 0) #10
  %.pre16 = load ptr, ptr %15, align 8
  br label %42

42:                                               ; preds = %38, %5
  %43 = phi ptr [ %.pre16, %38 ], [ %.pre, %5 ]
  ret ptr %43
}